target datalayout = "e-m:e-p270:32:32-p271:32:32-p272:64:64-i64:64-i128:128-f80:128-n8:16:32:64-S128"
target triple = "x86_64-pc-linux-gnu"

%"class.icu_77::UnicodeString" = type { %"class.icu_77::Replaceable", %"union.icu_77::UnicodeString::StackBufferOrFields" }
%"class.icu_77::Replaceable" = type { %"class.icu_77::UObject" }
%"class.icu_77::UObject" = type { ptr }
%"union.icu_77::UnicodeString::StackBufferOrFields" = type { %struct.anon.0, [32 x i8] }
%struct.anon.0 = type { i16, i32, i32, ptr }
%"struct.icu_77::CollationData" = type <{ ptr, ptr, ptr, ptr, ptr, ptr, ptr, i32, i32, i32, i32, ptr, ptr, ptr, i32, i32, ptr, ptr, i32, [4 x i8], ptr, i32, [4 x i8] }>
%"class.icu_77::CollationDataBuilder" = type { %"class.icu_77::UObject", ptr, ptr, ptr, ptr, %"class.icu_77::UVector32", %"class.icu_77::UVector64", %"class.icu_77::UVector", %"class.icu_77::UnicodeSet", %"class.icu_77::UnicodeString", i32, [4 x i8], %"class.icu_77::UnicodeSet", i8, i8, i8, ptr, ptr }
%"class.icu_77::UVector32" = type { %"class.icu_77::UObject", i32, i32, i32, ptr }
%"class.icu_77::UVector64" = type { %"class.icu_77::UObject", i32, i32, i32, ptr }
%"class.icu_77::UVector" = type { %"class.icu_77::UObject", i32, i32, ptr, ptr, ptr }
%"class.icu_77::UnicodeSet" = type <{ %"class.icu_77::UnicodeFilter", ptr, i32, i32, i8, [7 x i8], ptr, ptr, i32, [4 x i8], ptr, i32, [4 x i8], ptr, ptr, [25 x i32], [4 x i8] }>
%"class.icu_77::UnicodeFilter" = type { %"class.icu_77::UnicodeFunctor", %"class.icu_77::UnicodeMatcher" }
%"class.icu_77::UnicodeFunctor" = type { %"class.icu_77::UObject" }
%"class.icu_77::UnicodeMatcher" = type { ptr }
%struct.anon = type { i16, [27 x i16] }
%"class.icu_77::CollationFastLatinBuilder" = type <{ %"class.icu_77::UObject", i64, i64, [448 x [2 x i64]], %"class.icu_77::UVector64", %"class.icu_77::UVector64", ptr, [4 x i32], i32, i32, i32, i32, i8, [7 x i8], %"class.icu_77::UnicodeString", i32, [4 x i8] }>

; Function Attrs: inlinehint mustprogress nounwind uwtable
define linkonce_odr noundef i32 @_ZNK6icu_7713UnicodeString14getShortLengthEv(ptr noundef nonnull align 8 dereferenceable(64) %0) #3 comdat align 2 {
  %2 = alloca ptr, align 8
  store ptr %0, ptr %2, align 8, !tbaa !92
  %3 = load ptr, ptr %2, align 8
  %4 = getelementptr inbounds nuw %"class.icu_77::UnicodeString", ptr %3, i32 0, i32 1
  %5 = getelementptr inbounds nuw %struct.anon.0, ptr %4, i32 0, i32 0
  %6 = load i16, ptr %5, align 8, !tbaa !64
  %7 = sext i16 %6 to i32
  %8 = ashr i32 %7, 5
  ret i32 %8
}

; Function Attrs: inlinehint mustprogress nounwind uwtable
define linkonce_odr noundef signext i8 @_ZNK6icu_7713UnicodeString14hasShortLengthEv(ptr noundef nonnull align 8 dereferenceable(64) %0) #3 comdat align 2 {
  %2 = alloca ptr, align 8
  store ptr %0, ptr %2, align 8, !tbaa !92
  %3 = load ptr, ptr %2, align 8
  %4 = getelementptr inbounds nuw %"class.icu_77::UnicodeString", ptr %3, i32 0, i32 1
  %5 = getelementptr inbounds nuw %struct.anon.0, ptr %4, i32 0, i32 0
  %6 = load i16, ptr %5, align 8, !tbaa !64
  %7 = sext i16 %6 to i32
  %8 = icmp sge i32 %7, 0
  %9 = zext i1 %8 to i8
  ret i8 %9
}

; Function Attrs: inlinehint mustprogress uwtable
define linkonce_odr noundef i32 @_ZNK6icu_7713UnicodeString6lengthEv(ptr noundef nonnull align 8 dereferenceable(64) %0) #7 comdat align 2 {
  %2 = alloca ptr, align 8
  store ptr %0, ptr %2, align 8, !tbaa !92
  %3 = load ptr, ptr %2, align 8
  %4 = call noundef signext i8 @_ZNK6icu_7713UnicodeString14hasShortLengthEv(ptr noundef nonnull align 8 dereferenceable(64) %3)
  %5 = icmp ne i8 %4, 0
  br i1 %5, label %6, label %8

6:                                                ; preds = %1
  %7 = call noundef i32 @_ZNK6icu_7713UnicodeString14getShortLengthEv(ptr noundef nonnull align 8 dereferenceable(64) %3)
  br label %12

8:                                                ; preds = %1
  %9 = getelementptr inbounds nuw %"class.icu_77::UnicodeString", ptr %3, i32 0, i32 1
  %10 = getelementptr inbounds nuw %struct.anon.0, ptr %9, i32 0, i32 1
  %11 = load i32, ptr %10, align 4, !tbaa !64
  br label %12

12:                                               ; preds = %8, %6
  %13 = phi i32 [ %7, %6 ], [ %11, %8 ]
  ret i32 %13
}

; Function Attrs: inlinehint mustprogress nounwind uwtable
define linkonce_odr noundef ptr @_ZNK6icu_7713UnicodeString9getBufferEv(ptr noundef nonnull align 8 dereferenceable(64) %0) #3 comdat align 2 {
  %2 = alloca ptr, align 8
  %3 = alloca ptr, align 8
  store ptr %0, ptr %3, align 8, !tbaa !92
  %4 = load ptr, ptr %3, align 8
  %5 = getelementptr inbounds nuw %"class.icu_77::UnicodeString", ptr %4, i32 0, i32 1
  %6 = getelementptr inbounds nuw %struct.anon.0, ptr %5, i32 0, i32 0
  %7 = load i16, ptr %6, align 8, !tbaa !64
  %8 = sext i16 %7 to i32
  %9 = and i32 %8, 17
  %10 = icmp ne i32 %9, 0
  br i1 %10, label %11, label %12

11:                                               ; preds = %1
  store ptr null, ptr %2, align 8
  br label %27

12:                                               ; preds = %1
  %13 = getelementptr inbounds nuw %"class.icu_77::UnicodeString", ptr %4, i32 0, i32 1
  %14 = getelementptr inbounds nuw %struct.anon.0, ptr %13, i32 0, i32 0
  %15 = load i16, ptr %14, align 8, !tbaa !64
  %16 = sext i16 %15 to i32
  %17 = and i32 %16, 2
  %18 = icmp ne i32 %17, 0
  br i1 %18, label %19, label %23

19:                                               ; preds = %12
  %20 = getelementptr inbounds nuw %"class.icu_77::UnicodeString", ptr %4, i32 0, i32 1
  %21 = getelementptr inbounds nuw %struct.anon, ptr %20, i32 0, i32 1
  %22 = getelementptr inbounds [27 x i16], ptr %21, i64 0, i64 0
  store ptr %22, ptr %2, align 8
  br label %27

23:                                               ; preds = %12
  %24 = getelementptr inbounds nuw %"class.icu_77::UnicodeString", ptr %4, i32 0, i32 1
  %25 = getelementptr inbounds nuw %struct.anon.0, ptr %24, i32 0, i32 3
  %26 = load ptr, ptr %25, align 8, !tbaa !64
  store ptr %26, ptr %2, align 8
  br label %27

27:                                               ; preds = %23, %19, %11
  %28 = load ptr, ptr %2, align 8
  ret ptr %28
}

; Function Attrs: mustprogress uwtable
define linkonce_odr noundef i32 @_ZNK6icu_7725CollationFastLatinBuilder13lengthOfTableEv(ptr noundef nonnull align 8 dereferenceable(7372) %0) #4 comdat align 2 {
  %2 = alloca ptr, align 8
  store ptr %0, ptr %2, align 8, !tbaa !217
  %3 = load ptr, ptr %2, align 8
  %4 = getelementptr inbounds nuw %"class.icu_77::CollationFastLatinBuilder", ptr %3, i32 0, i32 14
  %5 = call noundef i32 @_ZNK6icu_7713UnicodeString6lengthEv(ptr noundef nonnull align 8 dereferenceable(64) %4)
  ret i32 %5
}

; Function Attrs: mustprogress nounwind uwtable
define linkonce_odr noundef ptr @_ZNK6icu_7725CollationFastLatinBuilder8getTableEv(ptr noundef nonnull align 8 dereferenceable(7372) %0) #1 comdat align 2 {
  %2 = alloca ptr, align 8
  store ptr %0, ptr %2, align 8, !tbaa !217
  %3 = load ptr, ptr %2, align 8
  %4 = getelementptr inbounds nuw %"class.icu_77::CollationFastLatinBuilder", ptr %3, i32 0, i32 14
  %5 = call noundef ptr @_ZNK6icu_7713UnicodeString9getBufferEv(ptr noundef nonnull align 8 dereferenceable(64) %4)
  ret ptr %5
}

; Function Attrs: inlinehint mustprogress nounwind uwtable
define internal noundef signext i8 @_ZL9U_FAILURE10UErrorCode(i32 noundef %0) #3 {
  %2 = alloca i32, align 4
  store i32 %0, ptr %2, align 4, !tbaa !97
  %3 = load i32, ptr %2, align 4, !tbaa !97
  %4 = icmp sgt i32 %3, 0
  %5 = zext i1 %4 to i8
  ret i8 %5
}

; Function Attrs: mustprogress uwtable
define void @_ZN6icu_7720CollationDataBuilder19buildFastLatinTableERNS_13CollationDataER10UErrorCode(ptr noundef nonnull align 8 dereferenceable(640) %0, ptr noundef nonnull align 8 dereferenceable(140) %1, ptr noundef nonnull align 4 dereferenceable(4) %2) #4 align 2 personality ptr @__gxx_personality_v0 {
  %4 = alloca ptr, align 8
  %5 = alloca ptr, align 8
  %6 = alloca ptr, align 8
  %7 = alloca ptr, align 8
  %8 = alloca i1, align 1
  %9 = alloca ptr, align 8
  %10 = alloca i32, align 4
  %11 = alloca ptr, align 8
  %12 = alloca i32, align 4
  store ptr %0, ptr %4, align 8, !tbaa !13
  store ptr %1, ptr %5, align 8, !tbaa !63
  store ptr %2, ptr %6, align 8, !tbaa !8
  %13 = load ptr, ptr %4, align 8
  %14 = load ptr, ptr %6, align 8, !tbaa !8
  %15 = load i32, ptr %14, align 4, !tbaa !97
  %16 = call noundef signext i8 @_ZL9U_FAILURE10UErrorCode(i32 noundef %15)
  %17 = icmp ne i8 %16, 0
  br i1 %17, label %22, label %18

18:                                               ; preds = %3
  %19 = getelementptr inbounds nuw %"class.icu_77::CollationDataBuilder", ptr %13, i32 0, i32 15
  %20 = load i8, ptr %19, align 2, !tbaa !134
  %21 = icmp ne i8 %20, 0
  br i1 %21, label %23, label %22

22:                                               ; preds = %18, %3
  br label %119

23:                                               ; preds = %18
  %24 = getelementptr inbounds nuw %"class.icu_77::CollationDataBuilder", ptr %13, i32 0, i32 16
  %25 = load ptr, ptr %24, align 8, !tbaa !135
  %26 = icmp eq ptr %25, null
  br i1 %26, label %31, label %27

27:                                               ; preds = %23
  %28 = load ptr, ptr %25, align 8, !tbaa !15
  %29 = getelementptr inbounds ptr, ptr %28, i64 1
  %30 = load ptr, ptr %29, align 8
  call void %30(ptr noundef nonnull align 8 dereferenceable(7372) %25) #11
  br label %31

31:                                               ; preds = %27, %23
  %32 = call noundef ptr @_ZN6icu_777UMemorynwEm(i64 noundef 7376) #11
  %33 = icmp eq ptr %32, null
  store i1 false, ptr %8, align 1
  br i1 %33, label %37, label %34

34:                                               ; preds = %31
  store ptr %32, ptr %7, align 8
  store i1 true, ptr %8, align 1
  %35 = load ptr, ptr %6, align 8, !tbaa !8
  invoke void @_ZN6icu_7725CollationFastLatinBuilderC1ER10UErrorCode(ptr noundef nonnull align 8 dereferenceable(7372) %32, ptr noundef nonnull align 4 dereferenceable(4) %35)
          to label %36 unwind label %45

36:                                               ; preds = %34
  br label %37

37:                                               ; preds = %36, %31
  %38 = phi ptr [ %32, %36 ], [ null, %31 ]
  %39 = getelementptr inbounds nuw %"class.icu_77::CollationDataBuilder", ptr %13, i32 0, i32 16
  store ptr %38, ptr %39, align 8, !tbaa !135
  %40 = getelementptr inbounds nuw %"class.icu_77::CollationDataBuilder", ptr %13, i32 0, i32 16
  %41 = load ptr, ptr %40, align 8, !tbaa !135
  %42 = icmp eq ptr %41, null
  br i1 %42, label %43, label %53

43:                                               ; preds = %37
  %44 = load ptr, ptr %6, align 8, !tbaa !8
  store i32 7, ptr %44, align 4, !tbaa !97
  br label %119

45:                                               ; preds = %34
  %46 = landingpad { ptr, i32 }
          cleanup
  %47 = extractvalue { ptr, i32 } %46, 0
  store ptr %47, ptr %9, align 8
  %48 = extractvalue { ptr, i32 } %46, 1
  store i32 %48, ptr %10, align 4
  %49 = load i1, ptr %8, align 1
  br i1 %49, label %50, label %52

50:                                               ; preds = %45
  %51 = load ptr, ptr %7, align 8
  call void @_ZN6icu_777UMemorydlEPv(ptr noundef %51) #11
  br label %52

52:                                               ; preds = %50, %45
  br label %120

53:                                               ; preds = %37
  %54 = getelementptr inbounds nuw %"class.icu_77::CollationDataBuilder", ptr %13, i32 0, i32 16
  %55 = load ptr, ptr %54, align 8, !tbaa !135
  %56 = load ptr, ptr %5, align 8, !tbaa !63
  %57 = load ptr, ptr %6, align 8, !tbaa !8
  %58 = call noundef signext i8 @_ZN6icu_7725CollationFastLatinBuilder7forDataERKNS_13CollationDataER10UErrorCode(ptr noundef nonnull align 8 dereferenceable(7372) %55, ptr noundef nonnull align 8 dereferenceable(140) %56, ptr noundef nonnull align 4 dereferenceable(4) %57)
  %59 = icmp ne i8 %58, 0
  br i1 %59, label %60, label %109

60:                                               ; preds = %53
  call void @llvm.lifetime.start.p0(i64 8, ptr %11) #11
  %61 = getelementptr inbounds nuw %"class.icu_77::CollationDataBuilder", ptr %13, i32 0, i32 16
  %62 = load ptr, ptr %61, align 8, !tbaa !135
  %63 = call noundef ptr @_ZNK6icu_7725CollationFastLatinBuilder8getTableEv(ptr noundef nonnull align 8 dereferenceable(7372) %62)
  store ptr %63, ptr %11, align 8, !tbaa !200
  call void @llvm.lifetime.start.p0(i64 4, ptr %12) #11
  %64 = getelementptr inbounds nuw %"class.icu_77::CollationDataBuilder", ptr %13, i32 0, i32 16
  %65 = load ptr, ptr %64, align 8, !tbaa !135
  %66 = call noundef i32 @_ZNK6icu_7725CollationFastLatinBuilder13lengthOfTableEv(ptr noundef nonnull align 8 dereferenceable(7372) %65)
  store i32 %66, ptr %12, align 4, !tbaa !57
  %67 = getelementptr inbounds nuw %"class.icu_77::CollationDataBuilder", ptr %13, i32 0, i32 2
  %68 = load ptr, ptr %67, align 8, !tbaa !55
  %69 = icmp ne ptr %68, null
  br i1 %69, label %70, label %102

70:                                               ; preds = %60
  %71 = load i32, ptr %12, align 4, !tbaa !57
  %72 = getelementptr inbounds nuw %"class.icu_77::CollationDataBuilder", ptr %13, i32 0, i32 2
  %73 = load ptr, ptr %72, align 8, !tbaa !55
  %74 = getelementptr inbounds nuw %"struct.icu_77::CollationData", ptr %73, i32 0, i32 14
  %75 = load i32, ptr %74, align 8, !tbaa !85
  %76 = icmp eq i32 %71, %75
  br i1 %76, label %77, label %102

77:                                               ; preds = %70
  %78 = load ptr, ptr %11, align 8, !tbaa !200
  %79 = getelementptr inbounds nuw %"class.icu_77::CollationDataBuilder", ptr %13, i32 0, i32 2
  %80 = load ptr, ptr %79, align 8, !tbaa !55
  %81 = getelementptr inbounds nuw %"struct.icu_77::CollationData", ptr %80, i32 0, i32 13
  %82 = load ptr, ptr %81, align 8, !tbaa !84
  %83 = load i32, ptr %12, align 4, !tbaa !57
  %84 = mul nsw i32 %83, 2
  %85 = sext i32 %84 to i64
  %86 = call i32 @memcmp(ptr noundef %78, ptr noundef %82, i64 noundef %85) #13
  %87 = icmp eq i32 %86, 0
  br i1 %87, label %88, label %102

88:                                               ; preds = %77
  %89 = getelementptr inbounds nuw %"class.icu_77::CollationDataBuilder", ptr %13, i32 0, i32 16
  %90 = load ptr, ptr %89, align 8, !tbaa !135
  %91 = icmp eq ptr %90, null
  br i1 %91, label %96, label %92

92:                                               ; preds = %88
  %93 = load ptr, ptr %90, align 8, !tbaa !15
  %94 = getelementptr inbounds ptr, ptr %93, i64 1
  %95 = load ptr, ptr %94, align 8
  call void %95(ptr noundef nonnull align 8 dereferenceable(7372) %90) #11
  br label %96

96:                                               ; preds = %92, %88
  %97 = getelementptr inbounds nuw %"class.icu_77::CollationDataBuilder", ptr %13, i32 0, i32 16
  store ptr null, ptr %97, align 8, !tbaa !135
  %98 = getelementptr inbounds nuw %"class.icu_77::CollationDataBuilder", ptr %13, i32 0, i32 2
  %99 = load ptr, ptr %98, align 8, !tbaa !55
  %100 = getelementptr inbounds nuw %"struct.icu_77::CollationData", ptr %99, i32 0, i32 13
  %101 = load ptr, ptr %100, align 8, !tbaa !84
  store ptr %101, ptr %11, align 8, !tbaa !200
  br label %102

102:                                              ; preds = %96, %77, %70, %60
  %103 = load ptr, ptr %11, align 8, !tbaa !200
  %104 = load ptr, ptr %5, align 8, !tbaa !63
  %105 = getelementptr inbounds nuw %"struct.icu_77::CollationData", ptr %104, i32 0, i32 13
  store ptr %103, ptr %105, align 8, !tbaa !84
  %106 = load i32, ptr %12, align 4, !tbaa !57
  %107 = load ptr, ptr %5, align 8, !tbaa !63
  %108 = getelementptr inbounds nuw %"struct.icu_77::CollationData", ptr %107, i32 0, i32 14
  store i32 %106, ptr %108, align 8, !tbaa !85
  call void @llvm.lifetime.end.p0(i64 4, ptr %12) #11
  call void @llvm.lifetime.end.p0(i64 8, ptr %11) #11
  br label %119

109:                                              ; preds = %53
  %110 = getelementptr inbounds nuw %"class.icu_77::CollationDataBuilder", ptr %13, i32 0, i32 16
  %111 = load ptr, ptr %110, align 8, !tbaa !135
  %112 = icmp eq ptr %111, null
  br i1 %112, label %117, label %113

113:                                              ; preds = %109
  %114 = load ptr, ptr %111, align 8, !tbaa !15
  %115 = getelementptr inbounds ptr, ptr %114, i64 1
  %116 = load ptr, ptr %115, align 8
  call void %116(ptr noundef nonnull align 8 dereferenceable(7372) %111) #11
  br label %117

117:                                              ; preds = %113, %109
  %118 = getelementptr inbounds nuw %"class.icu_77::CollationDataBuilder", ptr %13, i32 0, i32 16
  store ptr null, ptr %118, align 8, !tbaa !135
  br label %119

119:                                              ; preds = %22, %43, %117, %102
  ret void

120:                                              ; preds = %52
  %121 = load ptr, ptr %9, align 8
  %122 = load i32, ptr %10, align 4
  %123 = insertvalue { ptr, i32 } poison, ptr %121, 0
  %124 = insertvalue { ptr, i32 } %123, i32 %122, 1
  resume { ptr, i32 } %124
}