; Function Attrs: mustprogress uwtable
define void @_ZN6icu_7720CollationDataBuilder19buildFastLatinTableERNS_13CollationDataER10UErrorCode(ptr noundef nonnull align 8 captures(none) dereferenceable(640) %0, ptr noundef nonnull align 8 dereferenceable(140) %1, ptr noundef nonnull align 4 dereferenceable(4) %2) local_unnamed_addr #6 align 2 personality ptr @__gxx_personality_v0 {
  %4 = load i32, ptr %2, align 4, !tbaa !76
  %5 = icmp sgt i32 %4, 0
  %6 = getelementptr inbounds nuw i8, ptr %0, i64 618
  %7 = load i8, ptr %6, align 2
  %.not23 = icmp eq i8 %7, 0
  %or.cond = select i1 %5, i1 true, i1 %.not23
  br i1 %or.cond, label %72, label %8

8:                                                ; preds = %3
  %9 = getelementptr inbounds nuw i8, ptr %0, i64 624
  %10 = load ptr, ptr %9, align 8, !tbaa !121
  %11 = icmp eq ptr %10, null
  br i1 %11, label %16, label %12

12:                                               ; preds = %8
  %13 = load ptr, ptr %10, align 8, !tbaa !33
  %14 = getelementptr inbounds nuw i8, ptr %13, i64 8
  %15 = load ptr, ptr %14, align 8
  tail call void %15(ptr noundef nonnull align 8 dereferenceable(7372) %10) #19
  br label %16

16:                                               ; preds = %12, %8
  %17 = tail call noundef ptr @_ZN6icu_777UMemorynwEm(i64 noundef 7376) #19
  %18 = icmp eq ptr %17, null
  br i1 %18, label %20, label %19

19:                                               ; preds = %16
  invoke void @_ZN6icu_7725CollationFastLatinBuilderC1ER10UErrorCode(ptr noundef nonnull align 8 dereferenceable(7372) %17, ptr noundef nonnull align 4 dereferenceable(4) %2)
          to label %23 unwind label %21

20:                                               ; preds = %16
  store ptr null, ptr %9, align 8, !tbaa !121
  store i32 7, ptr %2, align 4, !tbaa !76
  br label %72

21:                                               ; preds = %19
  %22 = landingpad { ptr, i32 }
          cleanup
  tail call void @_ZN6icu_777UMemorydlEPv(ptr noundef nonnull %17) #19
  resume { ptr, i32 } %22

23:                                               ; preds = %19
  store ptr %17, ptr %9, align 8, !tbaa !121
  %24 = tail call noundef signext i8 @_ZN6icu_7725CollationFastLatinBuilder7forDataERKNS_13CollationDataER10UErrorCode(ptr noundef nonnull align 8 dereferenceable(7372) %17, ptr noundef nonnull align 8 dereferenceable(140) %1, ptr noundef nonnull align 4 dereferenceable(4) %2)
  %.not24 = icmp eq i8 %24, 0
  %25 = load ptr, ptr %9, align 8, !tbaa !121
  br i1 %.not24, label %65, label %26

26:                                               ; preds = %23
  %27 = getelementptr inbounds nuw i8, ptr %25, i64 7312
  %28 = load i16, ptr %27, align 8, !tbaa !74
  %29 = and i16 %28, 17
  %.not.i.i = icmp eq i16 %29, 0
  br i1 %.not.i.i, label %30, label %_ZNK6icu_7725CollationFastLatinBuilder8getTableEv.exit

30:                                               ; preds = %26
  %31 = and i16 %28, 2
  %.not2.i.i = icmp eq i16 %31, 0
  br i1 %.not2.i.i, label %34, label %32

32:                                               ; preds = %30
  %33 = getelementptr inbounds nuw i8, ptr %25, i64 7314
  br label %_ZNK6icu_7725CollationFastLatinBuilder8getTableEv.exit

34:                                               ; preds = %30
  %35 = getelementptr inbounds nuw i8, ptr %25, i64 7328
  %36 = load ptr, ptr %35, align 8, !tbaa !74
  br label %_ZNK6icu_7725CollationFastLatinBuilder8getTableEv.exit

_ZNK6icu_7725CollationFastLatinBuilder8getTableEv.exit: ; preds = %26, %32, %34
  %.0.i.i = phi ptr [ %33, %32 ], [ %36, %34 ], [ null, %26 ]
  %37 = icmp slt i16 %28, 0
  %38 = ashr i16 %28, 5
  %39 = sext i16 %38 to i32
  %40 = getelementptr inbounds nuw i8, ptr %25, i64 7316
  %41 = load i32, ptr %40, align 4
  %42 = select i1 %37, i32 %41, i32 %39
  %43 = getelementptr inbounds nuw i8, ptr %0, i64 16
  %44 = load ptr, ptr %43, align 8, !tbaa !63
  %.not25 = icmp eq ptr %44, null
  br i1 %.not25, label %62, label %45

45:                                               ; preds = %_ZNK6icu_7725CollationFastLatinBuilder8getTableEv.exit
  %46 = getelementptr inbounds nuw i8, ptr %44, i64 96
  %47 = load i32, ptr %46, align 8, !tbaa !180
  %48 = icmp eq i32 %42, %47
  br i1 %48, label %49, label %62

49:                                               ; preds = %45
  %50 = getelementptr inbounds nuw i8, ptr %44, i64 88
  %51 = load ptr, ptr %50, align 8, !tbaa !181
  %52 = shl nsw i32 %42, 1
  %53 = sext i32 %52 to i64
  %bcmp = tail call i32 @bcmp(ptr %.0.i.i, ptr %51, i64 %53)
  %54 = icmp eq i32 %bcmp, 0
  br i1 %54, label %55, label %62

55:                                               ; preds = %49
  %56 = load ptr, ptr %25, align 8, !tbaa !33
  %57 = getelementptr inbounds nuw i8, ptr %56, i64 8
  %58 = load ptr, ptr %57, align 8
  tail call void %58(ptr noundef nonnull align 8 dereferenceable(7372) %25) #19
  store ptr null, ptr %9, align 8, !tbaa !121
  %59 = load ptr, ptr %43, align 8, !tbaa !63
  %60 = getelementptr inbounds nuw i8, ptr %59, i64 88
  %61 = load ptr, ptr %60, align 8, !tbaa !181
  br label %62

62:                                               ; preds = %55, %49, %45, %_ZNK6icu_7725CollationFastLatinBuilder8getTableEv.exit
  %.0 = phi ptr [ %61, %55 ], [ %.0.i.i, %49 ], [ %.0.i.i, %45 ], [ %.0.i.i, %_ZNK6icu_7725CollationFastLatinBuilder8getTableEv.exit ]
  %63 = getelementptr inbounds nuw i8, ptr %1, i64 88
  store ptr %.0, ptr %63, align 8, !tbaa !181
  %64 = getelementptr inbounds nuw i8, ptr %1, i64 96
  store i32 %42, ptr %64, align 8, !tbaa !180
  br label %72

65:                                               ; preds = %23
  %66 = icmp eq ptr %25, null
  br i1 %66, label %71, label %67

67:                                               ; preds = %65
  %68 = load ptr, ptr %25, align 8, !tbaa !33
  %69 = getelementptr inbounds nuw i8, ptr %68, i64 8
  %70 = load ptr, ptr %69, align 8
  tail call void %70(ptr noundef nonnull align 8 dereferenceable(7372) %25) #19
  br label %71

71:                                               ; preds = %67, %65
  store ptr null, ptr %9, align 8, !tbaa !121
  br label %72

72:                                               ; preds = %3, %71, %62, %20
  ret void
}